target datalayout = "e-m:e-p270:32:32-p271:32:32-p272:64:64-i64:64-i128:128-f80:128-n8:16:32:64-S128"
target triple = "x86_64-unknown-linux-gnu"

%struct.QTailQLink = type { ptr, ptr }
%struct.BusState = type { %struct.Object, ptr, ptr, ptr, i32, i8, i8, i32, %union.BusChildHead, %struct.BusStateEntry, %struct.ResettableState }
%struct.Object = type { ptr, ptr, ptr, i32, ptr }
%union.BusChildHead = type { %struct.QTailQLink }
%struct.BusStateEntry = type { ptr, ptr }
%struct.ResettableState = type { i32, i8, i8 }
%struct.VirtioBusState = type { %struct.BusState, i8, i32 }

@.str.1 = private unnamed_addr constant [31 x i8] c"../qemu/hw/virtio/virtio-bus.c\00", align 1
@.str.4 = private unnamed_addr constant [28 x i8] c"bus->ioeventfd_grabbed != 0\00", align 1
@__PRETTY_FUNCTION__.virtio_bus_release_ioeventfd = private unnamed_addr constant [52 x i8] c"void virtio_bus_release_ioeventfd(VirtioBusState *)\00", align 1

; Function Attrs: nounwind sspstrong uwtable
define dso_local void @virtio_bus_release_ioeventfd(ptr noundef %bus) #0 {
entry:
  %bus.addr = alloca ptr, align 8
  store ptr %bus, ptr %bus.addr, align 8
  %0 = load ptr, ptr %bus.addr, align 8
  %ioeventfd_grabbed = getelementptr inbounds %struct.VirtioBusState, ptr %0, i32 0, i32 2
  %1 = load i32, ptr %ioeventfd_grabbed, align 4
  %cmp = icmp ne i32 %1, 0
  br i1 %cmp, label %if.then, label %if.else

if.then:                                          ; preds = %entry
  br label %if.end

if.else:                                          ; preds = %entry
  call void @__assert_fail(ptr noundef @.str.4, ptr noundef @.str.1, i32 noundef 211, ptr noundef @__PRETTY_FUNCTION__.virtio_bus_release_ioeventfd) #4
  unreachable

if.end:                                           ; preds = %if.then
  %2 = load ptr, ptr %bus.addr, align 8
  %ioeventfd_grabbed1 = getelementptr inbounds %struct.VirtioBusState, ptr %2, i32 0, i32 2
  %3 = load i32, ptr %ioeventfd_grabbed1, align 4
  %dec = add i32 %3, -1
  store i32 %dec, ptr %ioeventfd_grabbed1, align 4
  %cmp2 = icmp eq i32 %dec, 0
  br i1 %cmp2, label %land.lhs.true, label %if.end5

land.lhs.true:                                    ; preds = %if.end
  %4 = load ptr, ptr %bus.addr, align 8
  %ioeventfd_started = getelementptr inbounds %struct.VirtioBusState, ptr %4, i32 0, i32 1
  %5 = load i8, ptr %ioeventfd_started, align 8
  %tobool = trunc i8 %5 to i1
  br i1 %tobool, label %if.then3, label %if.end5

if.then3:                                         ; preds = %land.lhs.true
  %6 = load ptr, ptr %bus.addr, align 8
  %ioeventfd_started4 = getelementptr inbounds %struct.VirtioBusState, ptr %6, i32 0, i32 1
  store i8 0, ptr %ioeventfd_started4, align 8
  %7 = load ptr, ptr %bus.addr, align 8
  %call = call i32 @virtio_bus_start_ioeventfd(ptr noundef %7)
  br label %if.end5

if.end5:                                          ; preds = %if.then3, %land.lhs.true, %if.end
  ret void
}