; Function Attrs: nounwind sspstrong uwtable
define dso_local void @virtio_bus_release_ioeventfd(ptr noundef %bus) local_unnamed_addr #0 {
entry:
  %ioeventfd_grabbed = getelementptr inbounds nuw i8, ptr %bus, i64 124
  %0 = load i32, ptr %ioeventfd_grabbed, align 4
  %cmp.not = icmp eq i32 %0, 0
  br i1 %cmp.not, label %if.else, label %if.end

if.else:                                          ; preds = %entry
  tail call void @__assert_fail(ptr noundef nonnull @.str.4, ptr noundef nonnull @.str.1, i32 noundef 211, ptr noundef nonnull @__PRETTY_FUNCTION__.virtio_bus_release_ioeventfd) #6
  unreachable

if.end:                                           ; preds = %entry
  %dec = add i32 %0, -1
  store i32 %dec, ptr %ioeventfd_grabbed, align 4
  %cmp2 = icmp eq i32 %dec, 0
  br i1 %cmp2, label %land.lhs.true, label %if.end5

land.lhs.true:                                    ; preds = %if.end
  %ioeventfd_started = getelementptr inbounds nuw i8, ptr %bus, i64 120
  %1 = load i8, ptr %ioeventfd_started, align 8
  %tobool = trunc i8 %1 to i1
  br i1 %tobool, label %if.then3, label %if.end5

if.then3:                                         ; preds = %land.lhs.true
  store i8 0, ptr %ioeventfd_started, align 8
  %call = tail call i32 @virtio_bus_start_ioeventfd(ptr noundef nonnull %bus)
  br label %if.end5

if.end5:                                          ; preds = %if.then3, %land.lhs.true, %if.end
  ret void
}